; Function Attrs: mustprogress nofree norecurse nosync nounwind willreturn memory(argmem: read) uwtable
define dso_local range(i64 0, 65536) i64 @PageGetExactFreeSpace(ptr noundef readonly captures(none) %0) local_unnamed_addr #8 {
  %2 = getelementptr inbounds nuw i8, ptr %0, i64 14
  %3 = load i16, ptr %2, align 2
  %4 = zext i16 %3 to i32
  %5 = getelementptr inbounds nuw i8, ptr %0, i64 12
  %6 = load i16, ptr %5, align 4
  %7 = zext i16 %6 to i32
  %8 = sub nsw i32 %4, %7
  %narrow = tail call i32 @llvm.smax.i32(i32 %8, i32 0)
  %.0 = zext nneg i32 %narrow to i64
  ret i64 %.0
}